; Function Attrs: nounwind uwtable
define hidden zeroext i1 @SDL_SetRelativeMouseTransform_REAL(ptr noundef %0, ptr noundef %1) local_unnamed_addr #0 {
  %3 = load i8, ptr getelementptr inbounds nuw (i8, ptr @SDL_mouse, i64 185), align 1, !range !3, !noundef !4
  %4 = trunc nuw i8 %3 to i1
  br i1 %4, label %5, label %7

5:                                                ; preds = %2
  %6 = tail call zeroext i1 (ptr, ...) @SDL_SetError_REAL(ptr noundef nonnull @.str.18) #13
  br label %8

7:                                                ; preds = %2
  store ptr %0, ptr getelementptr inbounds nuw (i8, ptr @SDL_mouse, i64 96), align 8
  store ptr %1, ptr getelementptr inbounds nuw (i8, ptr @SDL_mouse, i64 104), align 8
  br label %8

8:                                                ; preds = %7, %5
  %.0 = phi i1 [ %6, %5 ], [ true, %7 ]
  ret i1 %.0
}